target datalayout = "e-m:e-p270:32:32-p271:32:32-p272:64:64-i64:64-i128:128-f80:128-n8:16:32:64-S128"
target triple = "x86_64-pc-linux-gnu"

%class.Edge = type { [2 x [2 x double]] }

@_ZN15MarchingSquares8edgeMaskE = constant [16 x i32] [i32 0, i32 9, i32 3, i32 10, i32 12, i32 5, i32 15, i32 6, i32 6, i32 15, i32 5, i32 12, i32 10, i32 3, i32 9, i32 0], align 16
@_ZN15MarchingSquares10vertexListE = global [4 x [2 x double]] zeroinitializer, align 16

; Function Attrs: mustprogress nounwind uwtable
define noundef double @_ZN15MarchingSquares11InterpolateEdd(double noundef %0, double noundef %1) #1 align 2 {
  %3 = alloca double, align 8
  %4 = alloca double, align 8
  store double %0, ptr %3, align 8
  store double %1, ptr %4, align 8
  %5 = load double, ptr %3, align 8
  %6 = load double, ptr %3, align 8
  %7 = load double, ptr %4, align 8
  %8 = fsub double %6, %7
  %9 = fdiv double %5, %8
  ret double %9
}

; Function Attrs: mustprogress nounwind uwtable
define void @_ZN6Square11EdgeCornersEiRiS0_(i32 noundef %0, ptr noundef nonnull align 4 dereferenceable(4) %1, ptr noundef nonnull align 4 dereferenceable(4) %2) #1 align 2 {
  %4 = alloca i32, align 4
  %5 = alloca ptr, align 8
  %6 = alloca ptr, align 8
  %7 = alloca i32, align 4
  %8 = alloca i32, align 4
  store i32 %0, ptr %4, align 4
  store ptr %1, ptr %5, align 8
  store ptr %2, ptr %6, align 8
  %9 = load i32, ptr %4, align 4
  call void @_ZN6Square15FactorEdgeIndexEiRiS0_(i32 noundef %9, ptr noundef nonnull align 4 dereferenceable(4) %7, ptr noundef nonnull align 4 dereferenceable(4) %8)
  %10 = load i32, ptr %7, align 4
  switch i32 %10, label %25 [
    i32 0, label %11
    i32 1, label %18
  ]

11:                                               ; preds = %3
  %12 = load i32, ptr %8, align 4
  %13 = call noundef i32 @_ZN6Square11CornerIndexEii(i32 noundef 0, i32 noundef %12)
  %14 = load ptr, ptr %5, align 8
  store i32 %13, ptr %14, align 4
  %15 = load i32, ptr %8, align 4
  %16 = call noundef i32 @_ZN6Square11CornerIndexEii(i32 noundef 1, i32 noundef %15)
  %17 = load ptr, ptr %6, align 8
  store i32 %16, ptr %17, align 4
  br label %25

18:                                               ; preds = %3
  %19 = load i32, ptr %8, align 4
  %20 = call noundef i32 @_ZN6Square11CornerIndexEii(i32 noundef %19, i32 noundef 0)
  %21 = load ptr, ptr %5, align 8
  store i32 %20, ptr %21, align 4
  %22 = load i32, ptr %8, align 4
  %23 = call noundef i32 @_ZN6Square11CornerIndexEii(i32 noundef %22, i32 noundef 1)
  %24 = load ptr, ptr %6, align 8
  store i32 %23, ptr %24, align 4
  br label %25

25:                                               ; preds = %18, %11, %3
  ret void
}

; Function Attrs: mustprogress nounwind uwtable
define void @_ZN6Square15FactorEdgeIndexEiRiS0_(i32 noundef %0, ptr noundef nonnull align 4 dereferenceable(4) %1, ptr noundef nonnull align 4 dereferenceable(4) %2) #1 align 2 {
  %4 = alloca i32, align 4
  %5 = alloca ptr, align 8
  %6 = alloca ptr, align 8
  store i32 %0, ptr %4, align 4
  store ptr %1, ptr %5, align 8
  store ptr %2, ptr %6, align 8
  %7 = load i32, ptr %4, align 4
  switch i32 %7, label %20 [
    i32 0, label %8
    i32 2, label %8
    i32 1, label %13
    i32 3, label %13
  ]

8:                                                ; preds = %3, %3
  %9 = load ptr, ptr %5, align 8
  store i32 0, ptr %9, align 4
  %10 = load i32, ptr %4, align 4
  %11 = sdiv i32 %10, 2
  %12 = load ptr, ptr %6, align 8
  store i32 %11, ptr %12, align 4
  br label %20

13:                                               ; preds = %3, %3
  %14 = load ptr, ptr %5, align 8
  store i32 1, ptr %14, align 4
  %15 = load i32, ptr %4, align 4
  %16 = sdiv i32 %15, 2
  %17 = add nsw i32 %16, 1
  %18 = srem i32 %17, 2
  %19 = load ptr, ptr %6, align 8
  store i32 %18, ptr %19, align 4
  br label %20

20:                                               ; preds = %13, %8, %3
  ret void
}

; Function Attrs: mustprogress nounwind uwtable
define noundef i32 @_ZN6Square11CornerIndexEii(i32 noundef %0, i32 noundef %1) #1 align 2 {
  %3 = alloca i32, align 4
  %4 = alloca i32, align 4
  store i32 %0, ptr %3, align 4
  store i32 %1, ptr %4, align 4
  %5 = load i32, ptr %4, align 4
  %6 = shl i32 %5, 1
  %7 = load i32, ptr %3, align 4
  %8 = or i32 %6, %7
  ret i32 %8
}

; Function Attrs: mustprogress uwtable
define void @_ZN15MarchingSquares9SetVertexEiPKdd(i32 noundef %0, ptr noundef %1, double noundef %2) #0 align 2 {
  %4 = alloca i32, align 4
  %5 = alloca ptr, align 8
  %6 = alloca double, align 8
  %7 = alloca i32, align 4
  %8 = alloca i32, align 4
  %9 = alloca i32, align 4
  %10 = alloca i32, align 4
  store i32 %0, ptr %4, align 4
  store ptr %1, ptr %5, align 8
  store double %2, ptr %6, align 8
  %11 = load i32, ptr %4, align 4
  call void @_ZN6Square15FactorEdgeIndexEiRiS0_(i32 noundef %11, ptr noundef nonnull align 4 dereferenceable(4) %7, ptr noundef nonnull align 4 dereferenceable(4) %8)
  %12 = load i32, ptr %4, align 4
  call void @_ZN6Square11EdgeCornersEiRiS0_(i32 noundef %12, ptr noundef nonnull align 4 dereferenceable(4) %9, ptr noundef nonnull align 4 dereferenceable(4) %10)
  %13 = load i32, ptr %7, align 4
  switch i32 %13, label %66 [
    i32 0, label %14
    i32 1, label %40
  ]

14:                                               ; preds = %3
  %15 = load ptr, ptr %5, align 8
  %16 = load i32, ptr %9, align 4
  %17 = sext i32 %16 to i64
  %18 = getelementptr inbounds double, ptr %15, i64 %17
  %19 = load double, ptr %18, align 8
  %20 = load double, ptr %6, align 8
  %21 = fsub double %19, %20
  %22 = load ptr, ptr %5, align 8
  %23 = load i32, ptr %10, align 4
  %24 = sext i32 %23 to i64
  %25 = getelementptr inbounds double, ptr %22, i64 %24
  %26 = load double, ptr %25, align 8
  %27 = load double, ptr %6, align 8
  %28 = fsub double %26, %27
  %29 = call noundef double @_ZN15MarchingSquares11InterpolateEdd(double noundef %21, double noundef %28)
  %30 = load i32, ptr %4, align 4
  %31 = sext i32 %30 to i64
  %32 = getelementptr inbounds [4 x [2 x double]], ptr @_ZN15MarchingSquares10vertexListE, i64 0, i64 %31
  %33 = getelementptr inbounds [2 x double], ptr %32, i64 0, i64 0
  store double %29, ptr %33, align 16
  %34 = load i32, ptr %8, align 4
  %35 = sitofp i32 %34 to double
  %36 = load i32, ptr %4, align 4
  %37 = sext i32 %36 to i64
  %38 = getelementptr inbounds [4 x [2 x double]], ptr @_ZN15MarchingSquares10vertexListE, i64 0, i64 %37
  %39 = getelementptr inbounds [2 x double], ptr %38, i64 0, i64 1
  store double %35, ptr %39, align 8
  br label %66

40:                                               ; preds = %3
  %41 = load ptr, ptr %5, align 8
  %42 = load i32, ptr %9, align 4
  %43 = sext i32 %42 to i64
  %44 = getelementptr inbounds double, ptr %41, i64 %43
  %45 = load double, ptr %44, align 8
  %46 = load double, ptr %6, align 8
  %47 = fsub double %45, %46
  %48 = load ptr, ptr %5, align 8
  %49 = load i32, ptr %10, align 4
  %50 = sext i32 %49 to i64
  %51 = getelementptr inbounds double, ptr %48, i64 %50
  %52 = load double, ptr %51, align 8
  %53 = load double, ptr %6, align 8
  %54 = fsub double %52, %53
  %55 = call noundef double @_ZN15MarchingSquares11InterpolateEdd(double noundef %47, double noundef %54)
  %56 = load i32, ptr %4, align 4
  %57 = sext i32 %56 to i64
  %58 = getelementptr inbounds [4 x [2 x double]], ptr @_ZN15MarchingSquares10vertexListE, i64 0, i64 %57
  %59 = getelementptr inbounds [2 x double], ptr %58, i64 0, i64 1
  store double %55, ptr %59, align 8
  %60 = load i32, ptr %8, align 4
  %61 = sitofp i32 %60 to double
  %62 = load i32, ptr %4, align 4
  %63 = sext i32 %62 to i64
  %64 = getelementptr inbounds [4 x [2 x double]], ptr @_ZN15MarchingSquares10vertexListE, i64 0, i64 %63
  %65 = getelementptr inbounds [2 x double], ptr %64, i64 0, i64 0
  store double %61, ptr %65, align 16
  br label %66

66:                                               ; preds = %40, %14, %3
  ret void
}

; Function Attrs: mustprogress nounwind uwtable
define noundef zeroext i8 @_ZN15MarchingSquares8GetIndexEPKdd(ptr noundef %0, double noundef %1) #1 align 2 {
  %3 = alloca ptr, align 8
  %4 = alloca double, align 8
  %5 = alloca i8, align 1
  store ptr %0, ptr %3, align 8
  store double %1, ptr %4, align 8
  store i8 0, ptr %5, align 1
  %6 = load ptr, ptr %3, align 8
  %7 = call noundef i32 @_ZN6Square11CornerIndexEii(i32 noundef 0, i32 noundef 0)
  %8 = sext i32 %7 to i64
  %9 = getelementptr inbounds double, ptr %6, i64 %8
  %10 = load double, ptr %9, align 8
  %11 = load double, ptr %4, align 8
  %12 = fcmp olt double %10, %11
  br i1 %12, label %13, label %18

13:                                               ; preds = %2
  %14 = load i8, ptr %5, align 1
  %15 = zext i8 %14 to i32
  %16 = or i32 %15, 1
  %17 = trunc i32 %16 to i8
  store i8 %17, ptr %5, align 1
  br label %18

18:                                               ; preds = %13, %2
  %19 = load ptr, ptr %3, align 8
  %20 = call noundef i32 @_ZN6Square11CornerIndexEii(i32 noundef 1, i32 noundef 0)
  %21 = sext i32 %20 to i64
  %22 = getelementptr inbounds double, ptr %19, i64 %21
  %23 = load double, ptr %22, align 8
  %24 = load double, ptr %4, align 8
  %25 = fcmp olt double %23, %24
  br i1 %25, label %26, label %31

26:                                               ; preds = %18
  %27 = load i8, ptr %5, align 1
  %28 = zext i8 %27 to i32
  %29 = or i32 %28, 2
  %30 = trunc i32 %29 to i8
  store i8 %30, ptr %5, align 1
  br label %31

31:                                               ; preds = %26, %18
  %32 = load ptr, ptr %3, align 8
  %33 = call noundef i32 @_ZN6Square11CornerIndexEii(i32 noundef 1, i32 noundef 1)
  %34 = sext i32 %33 to i64
  %35 = getelementptr inbounds double, ptr %32, i64 %34
  %36 = load double, ptr %35, align 8
  %37 = load double, ptr %4, align 8
  %38 = fcmp olt double %36, %37
  br i1 %38, label %39, label %44

39:                                               ; preds = %31
  %40 = load i8, ptr %5, align 1
  %41 = zext i8 %40 to i32
  %42 = or i32 %41, 4
  %43 = trunc i32 %42 to i8
  store i8 %43, ptr %5, align 1
  br label %44

44:                                               ; preds = %39, %31
  %45 = load ptr, ptr %3, align 8
  %46 = call noundef i32 @_ZN6Square11CornerIndexEii(i32 noundef 0, i32 noundef 1)
  %47 = sext i32 %46 to i64
  %48 = getelementptr inbounds double, ptr %45, i64 %47
  %49 = load double, ptr %48, align 8
  %50 = load double, ptr %4, align 8
  %51 = fcmp olt double %49, %50
  br i1 %51, label %52, label %57

52:                                               ; preds = %44
  %53 = load i8, ptr %5, align 1
  %54 = zext i8 %53 to i32
  %55 = or i32 %54, 8
  %56 = trunc i32 %55 to i8
  store i8 %56, ptr %5, align 1
  br label %57

57:                                               ; preds = %52, %44
  %58 = load i8, ptr %5, align 1
  ret i8 %58
}

; Function Attrs: mustprogress uwtable
define noundef i32 @_ZN15MarchingSquares8AddEdgesEPKddP4Edge(ptr noundef %0, double noundef %1, ptr noundef %2) #0 align 2 {
  %4 = alloca i32, align 4
  %5 = alloca ptr, align 8
  %6 = alloca double, align 8
  %7 = alloca ptr, align 8
  %8 = alloca i8, align 1
  %9 = alloca i32, align 4
  %10 = alloca %class.Edge, align 8
  %11 = alloca i32, align 4
  %12 = alloca i32, align 4
  %13 = alloca i32, align 4
  store ptr %0, ptr %5, align 8
  store double %1, ptr %6, align 8
  store ptr %2, ptr %7, align 8
  store i32 0, ptr %9, align 4
  %14 = load ptr, ptr %5, align 8
  %15 = load double, ptr %6, align 8
  %16 = call noundef zeroext i8 @_ZN15MarchingSquares8GetIndexEPKdd(ptr noundef %14, double noundef %15)
  store i8 %16, ptr %8, align 1
  %17 = load i8, ptr %8, align 1
  %18 = zext i8 %17 to i64
  %19 = getelementptr inbounds [16 x i32], ptr @_ZN15MarchingSquares8edgeMaskE, i64 0, i64 %18
  %20 = load i32, ptr %19, align 4
  %21 = icmp ne i32 %20, 0
  br i1 %21, label %23, label %22

22:                                               ; preds = %3
  store i32 0, ptr %4, align 4
  br label %112

23:                                               ; preds = %3
  store i32 1, ptr %13, align 4
  store i32 0, ptr %11, align 4
  br label %24

24:                                               ; preds = %42, %23
  %25 = load i32, ptr %11, align 4
  %26 = icmp slt i32 %25, 12
  br i1 %26, label %27, label %45

27:                                               ; preds = %24
  %28 = load i8, ptr %8, align 1
  %29 = zext i8 %28 to i64
  %30 = getelementptr inbounds [16 x i32], ptr @_ZN15MarchingSquares8edgeMaskE, i64 0, i64 %29
  %31 = load i32, ptr %30, align 4
  %32 = load i32, ptr %13, align 4
  %33 = and i32 %31, %32
  %34 = icmp ne i32 %33, 0
  br i1 %34, label %35, label %39

35:                                               ; preds = %27
  %36 = load i32, ptr %11, align 4
  %37 = load ptr, ptr %5, align 8
  %38 = load double, ptr %6, align 8
  call void @_ZN15MarchingSquares9SetVertexEiPKdd(i32 noundef %36, ptr noundef %37, double noundef %38)
  br label %39

39:                                               ; preds = %35, %27
  %40 = load i32, ptr %13, align 4
  %41 = shl i32 %40, 1
  store i32 %41, ptr %13, align 4
  br label %42

42:                                               ; preds = %39
  %43 = load i32, ptr %11, align 4
  %44 = add nsw i32 %43, 1
  store i32 %44, ptr %11, align 4
  br label %24, !llvm.loop !5

45:                                               ; preds = %24
  store i32 0, ptr %11, align 4
  br label %46

46:                                               ; preds = %107, %45
  %47 = load i8, ptr %8, align 1
  %48 = zext i8 %47 to i64
  %49 = getelementptr inbounds [16 x [5 x i32]], ptr @_ZN15MarchingSquares5edgesE, i64 0, i64 %48
  %50 = load i32, ptr %11, align 4
  %51 = sext i32 %50 to i64
  %52 = getelementptr inbounds [5 x i32], ptr %49, i64 0, i64 %51
  %53 = load i32, ptr %52, align 4
  %54 = icmp ne i32 %53, -1
  br i1 %54, label %55, label %110

55:                                               ; preds = %46
  store i32 0, ptr %12, align 4
  br label %56

56:                                               ; preds = %98, %55
  %57 = load i32, ptr %12, align 4
  %58 = icmp slt i32 %57, 2
  br i1 %58, label %59, label %101

59:                                               ; preds = %56
  %60 = load i8, ptr %8, align 1
  %61 = zext i8 %60 to i64
  %62 = getelementptr inbounds [16 x [5 x i32]], ptr @_ZN15MarchingSquares5edgesE, i64 0, i64 %61
  %63 = load i32, ptr %11, align 4
  %64 = add nsw i32 %63, 0
  %65 = sext i32 %64 to i64
  %66 = getelementptr inbounds [5 x i32], ptr %62, i64 0, i64 %65
  %67 = load i32, ptr %66, align 4
  %68 = sext i32 %67 to i64
  %69 = getelementptr inbounds [4 x [2 x double]], ptr @_ZN15MarchingSquares10vertexListE, i64 0, i64 %68
  %70 = load i32, ptr %12, align 4
  %71 = sext i32 %70 to i64
  %72 = getelementptr inbounds [2 x double], ptr %69, i64 0, i64 %71
  %73 = load double, ptr %72, align 8
  %74 = getelementptr inbounds %class.Edge, ptr %10, i32 0, i32 0
  %75 = getelementptr inbounds [2 x [2 x double]], ptr %74, i64 0, i64 0
  %76 = load i32, ptr %12, align 4
  %77 = sext i32 %76 to i64
  %78 = getelementptr inbounds [2 x double], ptr %75, i64 0, i64 %77
  store double %73, ptr %78, align 8
  %79 = load i8, ptr %8, align 1
  %80 = zext i8 %79 to i64
  %81 = getelementptr inbounds [16 x [5 x i32]], ptr @_ZN15MarchingSquares5edgesE, i64 0, i64 %80
  %82 = load i32, ptr %11, align 4
  %83 = add nsw i32 %82, 1
  %84 = sext i32 %83 to i64
  %85 = getelementptr inbounds [5 x i32], ptr %81, i64 0, i64 %84
  %86 = load i32, ptr %85, align 4
  %87 = sext i32 %86 to i64
  %88 = getelementptr inbounds [4 x [2 x double]], ptr @_ZN15MarchingSquares10vertexListE, i64 0, i64 %87
  %89 = load i32, ptr %12, align 4
  %90 = sext i32 %89 to i64
  %91 = getelementptr inbounds [2 x double], ptr %88, i64 0, i64 %90
  %92 = load double, ptr %91, align 8
  %93 = getelementptr inbounds %class.Edge, ptr %10, i32 0, i32 0
  %94 = getelementptr inbounds [2 x [2 x double]], ptr %93, i64 0, i64 1
  %95 = load i32, ptr %12, align 4
  %96 = sext i32 %95 to i64
  %97 = getelementptr inbounds [2 x double], ptr %94, i64 0, i64 %96
  store double %92, ptr %97, align 8
  br label %98

98:                                               ; preds = %59
  %99 = load i32, ptr %12, align 4
  %100 = add nsw i32 %99, 1
  store i32 %100, ptr %12, align 4
  br label %56, !llvm.loop !7

101:                                              ; preds = %56
  %102 = load ptr, ptr %7, align 8
  %103 = load i32, ptr %9, align 4
  %104 = add nsw i32 %103, 1
  store i32 %104, ptr %9, align 4
  %105 = sext i32 %103 to i64
  %106 = getelementptr inbounds %class.Edge, ptr %102, i64 %105
  call void @llvm.memcpy.p0.p0.i64(ptr align 8 %106, ptr align 8 %10, i64 32, i1 false)
  br label %107

107:                                              ; preds = %101
  %108 = load i32, ptr %11, align 4
  %109 = add nsw i32 %108, 2
  store i32 %109, ptr %11, align 4
  br label %46, !llvm.loop !8

110:                                              ; preds = %46
  %111 = load i32, ptr %9, align 4
  store i32 %111, ptr %4, align 4
  br label %112

112:                                              ; preds = %110, %22
  %113 = load i32, ptr %4, align 4
  ret i32 %113
}