; Function Attrs: mustprogress nofree norecurse nosync nounwind memory(readwrite, inaccessiblemem: none) uwtable
define noundef i32 @_ZN15MarchingSquares8AddEdgesEPKddP4Edge(ptr noundef readonly captures(none) %0, double noundef %1, ptr noundef writeonly captures(none) %2) local_unnamed_addr #3 align 2 {
  %.sroa.0 = alloca [2 x [2 x double]], align 8
  %4 = load double, ptr %0, align 8
  %5 = fcmp olt double %4, %1
  %.0.i = zext i1 %5 to i8
  %6 = getelementptr inbounds nuw i8, ptr %0, i64 8
  %7 = load double, ptr %6, align 8
  %8 = fcmp olt double %7, %1
  %9 = or disjoint i8 %.0.i, 2
  %.1.i = select i1 %8, i8 %9, i8 %.0.i
  %10 = getelementptr inbounds nuw i8, ptr %0, i64 24
  %11 = load double, ptr %10, align 8
  %12 = fcmp olt double %11, %1
  %13 = or disjoint i8 %.1.i, 4
  %.2.i = select i1 %12, i8 %13, i8 %.1.i
  %14 = getelementptr inbounds nuw i8, ptr %0, i64 16
  %15 = load double, ptr %14, align 8
  %16 = fcmp olt double %15, %1
  %17 = or disjoint i8 %.2.i, 8
  %.3.i = select i1 %16, i8 %17, i8 %.2.i
  %18 = zext nneg i8 %.3.i to i64
  switch i8 %.3.i, label %.preheader36 [
    i8 15, label %.loopexit
    i8 0, label %.loopexit
  ]

.preheader36:                                     ; preds = %3
  %19 = getelementptr inbounds nuw [16 x i32], ptr @_ZN15MarchingSquares8edgeMaskE, i64 0, i64 %18
  %20 = load i32, ptr %19, align 4
  br label %23

.preheader35:                                     ; preds = %_ZN15MarchingSquares9SetVertexEiPKdd.exit
  switch i8 %.3.i, label %.preheader.lr.ph [
    i8 15, label %.loopexit
    i8 0, label %.loopexit
  ]

.preheader.lr.ph:                                 ; preds = %.preheader35
  %21 = getelementptr inbounds nuw [16 x [5 x i32]], ptr @_ZN15MarchingSquares5edgesE, i64 0, i64 %18, i64 0
  %22 = load i32, ptr %21, align 4
  %.sroa.0.16..sroa_idx = getelementptr inbounds nuw i8, ptr %.sroa.0, i64 16
  br label %.preheader

23:                                               ; preds = %.preheader36, %_ZN15MarchingSquares9SetVertexEiPKdd.exit
  %indvars.iv = phi i64 [ 0, %.preheader36 ], [ %indvars.iv.next, %_ZN15MarchingSquares9SetVertexEiPKdd.exit ]
  %.038 = phi i32 [ 1, %.preheader36 ], [ %61, %_ZN15MarchingSquares9SetVertexEiPKdd.exit ]
  %24 = and i32 %20, %.038
  %.not32 = icmp eq i32 %24, 0
  br i1 %.not32, label %_ZN15MarchingSquares9SetVertexEiPKdd.exit, label %25

25:                                               ; preds = %23
  %26 = trunc nuw nsw i64 %indvars.iv to i32
  switch i32 %26, label %_ZN6Square15FactorEdgeIndexEiRiS0_.exit.i [
    i32 0, label %27
    i32 2, label %27
    i32 1, label %28
    i32 3, label %28
  ]

27:                                               ; preds = %25, %25
  %.cmp.i.i = icmp samesign ugt i64 %indvars.iv, 1
  br label %.sink.split.i.i

28:                                               ; preds = %25, %25
  %.cmp6.i.i = icmp samesign ult i64 %indvars.iv, 2
  br label %.sink.split.i.i

.sink.split.i.i:                                  ; preds = %28, %27
  %.0.i33 = phi i32 [ 1, %28 ], [ 0, %27 ]
  %.cmp6.sink.i.i = phi i1 [ %.cmp6.i.i, %28 ], [ %.cmp.i.i, %27 ]
  %29 = uitofp i1 %.cmp6.sink.i.i to double
  br label %_ZN6Square15FactorEdgeIndexEiRiS0_.exit.i

_ZN6Square15FactorEdgeIndexEiRiS0_.exit.i:        ; preds = %.sink.split.i.i, %25
  %.020.i = phi double [ 0.000000e+00, %25 ], [ %29, %.sink.split.i.i ]
  %.1.i34 = phi i32 [ undef, %25 ], [ %.0.i33, %.sink.split.i.i ]
  switch i32 %26, label %_ZN6Square15FactorEdgeIndexEiRiS0_.exit.thread.i.i [
    i32 0, label %_ZN6Square15FactorEdgeIndexEiRiS0_.exit.thread12.i.i
    i32 2, label %_ZN6Square15FactorEdgeIndexEiRiS0_.exit.thread12.i.i
    i32 1, label %32
    i32 3, label %32
  ]

_ZN6Square15FactorEdgeIndexEiRiS0_.exit.thread12.i.i: ; preds = %_ZN6Square15FactorEdgeIndexEiRiS0_.exit.i, %_ZN6Square15FactorEdgeIndexEiRiS0_.exit.i
  %.cmp.i.inv.i.i = icmp samesign ult i64 %indvars.iv, 2
  %30 = select i1 %.cmp.i.inv.i.i, i32 0, i32 2
  br label %_ZN6Square15FactorEdgeIndexEiRiS0_.exit.thread.i.i

_ZN6Square15FactorEdgeIndexEiRiS0_.exit.thread.i.i: ; preds = %_ZN6Square15FactorEdgeIndexEiRiS0_.exit.thread12.i.i, %_ZN6Square15FactorEdgeIndexEiRiS0_.exit.i
  %.011.i.i = phi i32 [ %30, %_ZN6Square15FactorEdgeIndexEiRiS0_.exit.thread12.i.i ], [ 0, %_ZN6Square15FactorEdgeIndexEiRiS0_.exit.i ]
  %31 = or disjoint i32 %.011.i.i, 1
  br label %_ZN6Square11EdgeCornersEiRiS0_.exit.i

32:                                               ; preds = %_ZN6Square15FactorEdgeIndexEiRiS0_.exit.i, %_ZN6Square15FactorEdgeIndexEiRiS0_.exit.i
  %.cmp6.i.i.i = icmp samesign ult i64 %indvars.iv, 2
  %33 = zext i1 %.cmp6.i.i.i to i32
  %34 = or disjoint i32 %33, 2
  br label %_ZN6Square11EdgeCornersEiRiS0_.exit.i

_ZN6Square11EdgeCornersEiRiS0_.exit.i:            ; preds = %32, %_ZN6Square15FactorEdgeIndexEiRiS0_.exit.thread.i.i
  %.019.i = phi i32 [ %.011.i.i, %_ZN6Square15FactorEdgeIndexEiRiS0_.exit.thread.i.i ], [ %33, %32 ]
  %storemerge.i.i = phi i32 [ %31, %_ZN6Square15FactorEdgeIndexEiRiS0_.exit.thread.i.i ], [ %34, %32 ]
  switch i32 %.1.i34, label %_ZN15MarchingSquares9SetVertexEiPKdd.exit [
    i32 0, label %35
    i32 1, label %48
  ]

35:                                               ; preds = %_ZN6Square11EdgeCornersEiRiS0_.exit.i
  %36 = zext nneg i32 %.019.i to i64
  %37 = getelementptr inbounds nuw double, ptr %0, i64 %36
  %38 = load double, ptr %37, align 8
  %39 = fsub double %38, %1
  %40 = zext nneg i32 %storemerge.i.i to i64
  %41 = getelementptr inbounds nuw double, ptr %0, i64 %40
  %42 = load double, ptr %41, align 8
  %43 = fsub double %42, %1
  %44 = fsub double %39, %43
  %45 = fdiv double %39, %44
  %46 = getelementptr inbounds nuw [4 x [2 x double]], ptr @_ZN15MarchingSquares10vertexListE, i64 0, i64 %indvars.iv
  store double %45, ptr %46, align 16
  %47 = getelementptr inbounds nuw i8, ptr %46, i64 8
  store double %.020.i, ptr %47, align 8
  br label %_ZN15MarchingSquares9SetVertexEiPKdd.exit

48:                                               ; preds = %_ZN6Square11EdgeCornersEiRiS0_.exit.i
  %49 = zext nneg i32 %.019.i to i64
  %50 = getelementptr inbounds nuw double, ptr %0, i64 %49
  %51 = load double, ptr %50, align 8
  %52 = fsub double %51, %1
  %53 = zext nneg i32 %storemerge.i.i to i64
  %54 = getelementptr inbounds nuw double, ptr %0, i64 %53
  %55 = load double, ptr %54, align 8
  %56 = fsub double %55, %1
  %57 = fsub double %52, %56
  %58 = fdiv double %52, %57
  %59 = getelementptr inbounds nuw [4 x [2 x double]], ptr @_ZN15MarchingSquares10vertexListE, i64 0, i64 %indvars.iv
  %60 = getelementptr inbounds nuw i8, ptr %59, i64 8
  store double %58, ptr %60, align 8
  store double %.020.i, ptr %59, align 16
  br label %_ZN15MarchingSquares9SetVertexEiPKdd.exit

_ZN15MarchingSquares9SetVertexEiPKdd.exit:        ; preds = %48, %35, %_ZN6Square11EdgeCornersEiRiS0_.exit.i, %23
  %61 = shl i32 %.038, 1
  %indvars.iv.next = add nuw nsw i64 %indvars.iv, 1
  %exitcond.not = icmp eq i64 %indvars.iv.next, 12
  br i1 %exitcond.not, label %.preheader35, label %23, !llvm.loop !5

.preheader:                                       ; preds = %.preheader.lr.ph, %.preheader
  %indvars.iv50 = phi i64 [ 0, %.preheader.lr.ph ], [ %indvars.iv.next51, %.preheader ]
  %indvars.iv48 = phi i64 [ 0, %.preheader.lr.ph ], [ %indvars.iv.next49, %.preheader ]
  %62 = phi i32 [ %22, %.preheader.lr.ph ], [ %72, %.preheader ]
  %63 = sext i32 %62 to i64
  %64 = or disjoint i64 %indvars.iv48, 1
  %65 = getelementptr inbounds nuw [16 x [5 x i32]], ptr @_ZN15MarchingSquares5edgesE, i64 0, i64 %18, i64 %64
  %66 = load i32, ptr %65, align 4
  %67 = sext i32 %66 to i64
  %68 = shl nsw i64 %63, 4
  %scevgep = getelementptr i8, ptr @_ZN15MarchingSquares10vertexListE, i64 %68
  call void @llvm.memcpy.p0.p0.i64(ptr noundef nonnull align 8 dereferenceable(16) %.sroa.0, ptr noundef nonnull align 16 dereferenceable(16) %scevgep, i64 16, i1 false)
  %69 = shl nsw i64 %67, 4
  %scevgep44 = getelementptr i8, ptr @_ZN15MarchingSquares10vertexListE, i64 %69
  call void @llvm.memcpy.p0.p0.i64(ptr noundef nonnull align 8 dereferenceable(16) %.sroa.0.16..sroa_idx, ptr noundef nonnull align 16 dereferenceable(16) %scevgep44, i64 16, i1 false)
  %indvars.iv.next51 = add nuw nsw i64 %indvars.iv50, 1
  %70 = getelementptr inbounds nuw %class.Edge, ptr %2, i64 %indvars.iv50
  call void @llvm.memcpy.p0.p0.i64(ptr noundef nonnull align 8 dereferenceable(32) %70, ptr noundef nonnull align 8 dereferenceable(32) %.sroa.0, i64 32, i1 false)
  %indvars.iv.next49 = add nuw nsw i64 %indvars.iv48, 2
  %71 = getelementptr inbounds nuw [16 x [5 x i32]], ptr @_ZN15MarchingSquares5edgesE, i64 0, i64 %18, i64 %indvars.iv.next49
  %72 = load i32, ptr %71, align 4
  %.not31 = icmp eq i32 %72, -1
  br i1 %.not31, label %.loopexit.loopexit, label %.preheader, !llvm.loop !7

.loopexit.loopexit:                               ; preds = %.preheader
  %73 = trunc nuw i64 %indvars.iv.next51 to i32
  br label %.loopexit

.loopexit:                                        ; preds = %.preheader35, %.preheader35, %.loopexit.loopexit, %3, %3
  %.030 = phi i32 [ 0, %3 ], [ 0, %3 ], [ 0, %.preheader35 ], [ %73, %.loopexit.loopexit ], [ 0, %.preheader35 ]
  ret i32 %.030
}